target datalayout = "e-m:e-p270:32:32-p271:32:32-p272:64:64-i64:64-i128:128-f80:128-n8:16:32:64-S128"
target triple = "x86_64-pc-linux-gnu"

@stdout = external global ptr, align 8
@traceFnNestingDepth = internal global i32 0, align 4

; Function Attrs: nounwind uwtable
define internal void @TraceData(ptr noundef %0, i32 noundef %1, i32 noundef %2, ptr noundef %3, ptr noundef %4) #0 {
  %6 = alloca ptr, align 8
  %7 = alloca i32, align 4
  %8 = alloca i32, align 4
  %9 = alloca ptr, align 8
  %10 = alloca ptr, align 8
  %11 = alloca [500 x i8], align 16
  store ptr %0, ptr %6, align 8, !tbaa !14
  store i32 %1, ptr %7, align 4, !tbaa !18
  store i32 %2, ptr %8, align 4, !tbaa !18
  store ptr %3, ptr %9, align 8, !tbaa !15
  store ptr %4, ptr %10, align 8, !tbaa !36
  call void @llvm.lifetime.start.p0(i64 500, ptr %11) #12
  %12 = getelementptr inbounds [500 x i8], ptr %11, i64 0, i64 0
  %13 = load i32, ptr @traceFnNestingDepth, align 4, !tbaa !18
  %14 = mul nsw i32 %13, 3
  %15 = load ptr, ptr %9, align 8, !tbaa !15
  %16 = load ptr, ptr %10, align 8, !tbaa !36
  %17 = call i32 @utrace_vformat_77(ptr noundef %12, i32 noundef 500, i32 noundef %14, ptr noundef %15, ptr noundef %16)
  %18 = getelementptr inbounds nuw [500 x i8], ptr %11, i64 0, i64 499
  store i8 0, ptr %18, align 1, !tbaa !20
  %19 = getelementptr inbounds [500 x i8], ptr %11, i64 0, i64 0
  %20 = load ptr, ptr @stdout, align 8, !tbaa !27
  %21 = call i32 @fputs(ptr noundef %19, ptr noundef %20)
  %22 = load ptr, ptr @stdout, align 8, !tbaa !27
  %23 = call i32 @putc(i32 noundef 10, ptr noundef %22)
  call void @llvm.lifetime.end.p0(i64 500, ptr %11) #12
  ret void
}