; Function Attrs: nounwind uwtable
define internal void @TraceData(ptr readnone captures(none) %0, i32 %1, i32 %2, ptr noundef %3, ptr noundef %4) #0 {
  %6 = alloca [500 x i8], align 16
  call void @llvm.lifetime.start.p0(i64 500, ptr nonnull %6) #23
  %7 = load i32, ptr @traceFnNestingDepth, align 4, !tbaa !18
  %8 = mul nsw i32 %7, 3
  %9 = call i32 @utrace_vformat_77(ptr noundef nonnull %6, i32 noundef 500, i32 noundef %8, ptr noundef %3, ptr noundef %4) #23
  %10 = getelementptr inbounds nuw i8, ptr %6, i64 499
  store i8 0, ptr %10, align 1, !tbaa !11
  %11 = load ptr, ptr @stdout, align 8, !tbaa !16
  %12 = call i32 @fputs(ptr noundef nonnull %6, ptr noundef %11)
  %13 = load ptr, ptr @stdout, align 8, !tbaa !16
  %14 = call i32 @putc(i32 noundef 10, ptr noundef %13)
  call void @llvm.lifetime.end.p0(i64 500, ptr nonnull %6) #23
  ret void
}